target datalayout = "e-m:e-p270:32:32-p271:32:32-p272:64:64-i64:64-i128:128-f80:128-n8:16:32:64-S128"
target triple = "x86_64-pc-linux-gnu"

%struct.VP8EncProba = type { [3 x i8], i8, [4 x [8 x [3 x [11 x i8]]]], [4 x [8 x [3 x [11 x i32]]]], [4 x [8 x [3 x [68 x i16]]]], [4 x [16 x [3 x ptr]]], i32, i32, i32 }

@VP8EntropyCost = external constant [256 x i16], align 16
@VP8CoeffsUpdateProba = external constant [4 x [8 x [3 x [11 x i8]]]], align 16
@VP8CoeffsProba0 = external constant [4 x [8 x [3 x [11 x i8]]]], align 16

; Function Attrs: inlinehint nounwind uwtable
define internal i32 @VP8BitCost(i32 noundef %0, i8 noundef zeroext %1) #4 {
  %3 = alloca i32, align 4
  %4 = alloca i8, align 1
  store i32 %0, ptr %3, align 4, !tbaa !8
  store i8 %1, ptr %4, align 1, !tbaa !35
  %5 = load i32, ptr %3, align 4, !tbaa !8
  %6 = icmp ne i32 %5, 0
  br i1 %6, label %13, label %7

7:                                                ; preds = %2
  %8 = load i8, ptr %4, align 1, !tbaa !35
  %9 = zext i8 %8 to i64
  %10 = getelementptr inbounds nuw [256 x i16], ptr @VP8EntropyCost, i64 0, i64 %9
  %11 = load i16, ptr %10, align 2, !tbaa !128
  %12 = zext i16 %11 to i32
  br label %21

13:                                               ; preds = %2
  %14 = load i8, ptr %4, align 1, !tbaa !35
  %15 = zext i8 %14 to i32
  %16 = sub nsw i32 255, %15
  %17 = sext i32 %16 to i64
  %18 = getelementptr inbounds [256 x i16], ptr @VP8EntropyCost, i64 0, i64 %17
  %19 = load i16, ptr %18, align 2, !tbaa !128
  %20 = zext i16 %19 to i32
  br label %21

21:                                               ; preds = %13, %7
  %22 = phi i32 [ %12, %7 ], [ %20, %13 ]
  ret i32 %22
}

; Function Attrs: nounwind uwtable
define internal i32 @BranchCost(i32 noundef %0, i32 noundef %1, i32 noundef %2) #0 {
  %4 = alloca i32, align 4
  %5 = alloca i32, align 4
  %6 = alloca i32, align 4
  store i32 %0, ptr %4, align 4, !tbaa !8
  store i32 %1, ptr %5, align 4, !tbaa !8
  store i32 %2, ptr %6, align 4, !tbaa !8
  %7 = load i32, ptr %4, align 4, !tbaa !8
  %8 = load i32, ptr %6, align 4, !tbaa !8
  %9 = trunc i32 %8 to i8
  %10 = call i32 @VP8BitCost(i32 noundef 1, i8 noundef zeroext %9)
  %11 = mul nsw i32 %7, %10
  %12 = load i32, ptr %5, align 4, !tbaa !8
  %13 = load i32, ptr %4, align 4, !tbaa !8
  %14 = sub nsw i32 %12, %13
  %15 = load i32, ptr %6, align 4, !tbaa !8
  %16 = trunc i32 %15 to i8
  %17 = call i32 @VP8BitCost(i32 noundef 0, i8 noundef zeroext %16)
  %18 = mul nsw i32 %14, %17
  %19 = add nsw i32 %11, %18
  ret i32 %19
}

; Function Attrs: nounwind uwtable
define internal i32 @CalcTokenProba(i32 noundef %0, i32 noundef %1) #0 {
  %3 = alloca i32, align 4
  %4 = alloca i32, align 4
  store i32 %0, ptr %3, align 4, !tbaa !8
  store i32 %1, ptr %4, align 4, !tbaa !8
  %5 = load i32, ptr %3, align 4, !tbaa !8
  %6 = icmp ne i32 %5, 0
  br i1 %6, label %7, label %13

7:                                                ; preds = %2
  %8 = load i32, ptr %3, align 4, !tbaa !8
  %9 = mul nsw i32 %8, 255
  %10 = load i32, ptr %4, align 4, !tbaa !8
  %11 = sdiv i32 %9, %10
  %12 = sub nsw i32 255, %11
  br label %14

13:                                               ; preds = %2
  br label %14

14:                                               ; preds = %13, %7
  %15 = phi i32 [ %12, %7 ], [ 255, %13 ]
  ret i32 %15
}

; Function Attrs: nounwind uwtable
define internal i32 @FinalizeTokenProbas(ptr noundef %0) #0 {
  %2 = alloca ptr, align 8
  %3 = alloca i32, align 4
  %4 = alloca i32, align 4
  %5 = alloca i32, align 4
  %6 = alloca i32, align 4
  %7 = alloca i32, align 4
  %8 = alloca i32, align 4
  %9 = alloca i32, align 4
  %10 = alloca i32, align 4
  %11 = alloca i32, align 4
  %12 = alloca i32, align 4
  %13 = alloca i32, align 4
  %14 = alloca i32, align 4
  %15 = alloca i32, align 4
  %16 = alloca i32, align 4
  %17 = alloca i32, align 4
  store ptr %0, ptr %2, align 8, !tbaa !56
  call void @llvm.lifetime.start.p0(i64 4, ptr %3) #7
  store i32 0, ptr %3, align 4, !tbaa !8
  call void @llvm.lifetime.start.p0(i64 4, ptr %4) #7
  store i32 0, ptr %4, align 4, !tbaa !8
  call void @llvm.lifetime.start.p0(i64 4, ptr %5) #7
  call void @llvm.lifetime.start.p0(i64 4, ptr %6) #7
  call void @llvm.lifetime.start.p0(i64 4, ptr %7) #7
  call void @llvm.lifetime.start.p0(i64 4, ptr %8) #7
  store i32 0, ptr %5, align 4, !tbaa !8
  br label %18

18:                                               ; preds = %170, %1
  %19 = load i32, ptr %5, align 4, !tbaa !8
  %20 = icmp slt i32 %19, 4
  br i1 %20, label %21, label %173

21:                                               ; preds = %18
  store i32 0, ptr %6, align 4, !tbaa !8
  br label %22

22:                                               ; preds = %166, %21
  %23 = load i32, ptr %6, align 4, !tbaa !8
  %24 = icmp slt i32 %23, 8
  br i1 %24, label %25, label %169

25:                                               ; preds = %22
  store i32 0, ptr %7, align 4, !tbaa !8
  br label %26

26:                                               ; preds = %162, %25
  %27 = load i32, ptr %7, align 4, !tbaa !8
  %28 = icmp slt i32 %27, 3
  br i1 %28, label %29, label %165

29:                                               ; preds = %26
  store i32 0, ptr %8, align 4, !tbaa !8
  br label %30

30:                                               ; preds = %158, %29
  %31 = load i32, ptr %8, align 4, !tbaa !8
  %32 = icmp slt i32 %31, 11
  br i1 %32, label %33, label %161

33:                                               ; preds = %30
  call void @llvm.lifetime.start.p0(i64 4, ptr %9) #7
  %34 = load ptr, ptr %2, align 8, !tbaa !56
  %35 = getelementptr inbounds nuw %struct.VP8EncProba, ptr %34, i32 0, i32 3
  %36 = load i32, ptr %5, align 4, !tbaa !8
  %37 = sext i32 %36 to i64
  %38 = getelementptr inbounds [4 x [8 x [3 x [11 x i32]]]], ptr %35, i64 0, i64 %37
  %39 = load i32, ptr %6, align 4, !tbaa !8
  %40 = sext i32 %39 to i64
  %41 = getelementptr inbounds [8 x [3 x [11 x i32]]], ptr %38, i64 0, i64 %40
  %42 = load i32, ptr %7, align 4, !tbaa !8
  %43 = sext i32 %42 to i64
  %44 = getelementptr inbounds [3 x [11 x i32]], ptr %41, i64 0, i64 %43
  %45 = load i32, ptr %8, align 4, !tbaa !8
  %46 = sext i32 %45 to i64
  %47 = getelementptr inbounds [11 x i32], ptr %44, i64 0, i64 %46
  %48 = load i32, ptr %47, align 4, !tbaa !8
  store i32 %48, ptr %9, align 4, !tbaa !8
  call void @llvm.lifetime.start.p0(i64 4, ptr %10) #7
  %49 = load i32, ptr %9, align 4, !tbaa !8
  %50 = lshr i32 %49, 0
  %51 = and i32 %50, 65535
  store i32 %51, ptr %10, align 4, !tbaa !8
  call void @llvm.lifetime.start.p0(i64 4, ptr %11) #7
  %52 = load i32, ptr %9, align 4, !tbaa !8
  %53 = lshr i32 %52, 16
  %54 = and i32 %53, 65535
  store i32 %54, ptr %11, align 4, !tbaa !8
  call void @llvm.lifetime.start.p0(i64 4, ptr %12) #7
  %55 = load i32, ptr %5, align 4, !tbaa !8
  %56 = sext i32 %55 to i64
  %57 = getelementptr inbounds [4 x [8 x [3 x [11 x i8]]]], ptr @VP8CoeffsUpdateProba, i64 0, i64 %56
  %58 = load i32, ptr %6, align 4, !tbaa !8
  %59 = sext i32 %58 to i64
  %60 = getelementptr inbounds [8 x [3 x [11 x i8]]], ptr %57, i64 0, i64 %59
  %61 = load i32, ptr %7, align 4, !tbaa !8
  %62 = sext i32 %61 to i64
  %63 = getelementptr inbounds [3 x [11 x i8]], ptr %60, i64 0, i64 %62
  %64 = load i32, ptr %8, align 4, !tbaa !8
  %65 = sext i32 %64 to i64
  %66 = getelementptr inbounds [11 x i8], ptr %63, i64 0, i64 %65
  %67 = load i8, ptr %66, align 1, !tbaa !35
  %68 = zext i8 %67 to i32
  store i32 %68, ptr %12, align 4, !tbaa !8
  call void @llvm.lifetime.start.p0(i64 4, ptr %13) #7
  %69 = load i32, ptr %5, align 4, !tbaa !8
  %70 = sext i32 %69 to i64
  %71 = getelementptr inbounds [4 x [8 x [3 x [11 x i8]]]], ptr @VP8CoeffsProba0, i64 0, i64 %70
  %72 = load i32, ptr %6, align 4, !tbaa !8
  %73 = sext i32 %72 to i64
  %74 = getelementptr inbounds [8 x [3 x [11 x i8]]], ptr %71, i64 0, i64 %73
  %75 = load i32, ptr %7, align 4, !tbaa !8
  %76 = sext i32 %75 to i64
  %77 = getelementptr inbounds [3 x [11 x i8]], ptr %74, i64 0, i64 %76
  %78 = load i32, ptr %8, align 4, !tbaa !8
  %79 = sext i32 %78 to i64
  %80 = getelementptr inbounds [11 x i8], ptr %77, i64 0, i64 %79
  %81 = load i8, ptr %80, align 1, !tbaa !35
  %82 = zext i8 %81 to i32
  store i32 %82, ptr %13, align 4, !tbaa !8
  call void @llvm.lifetime.start.p0(i64 4, ptr %14) #7
  %83 = load i32, ptr %10, align 4, !tbaa !8
  %84 = load i32, ptr %11, align 4, !tbaa !8
  %85 = call i32 @CalcTokenProba(i32 noundef %83, i32 noundef %84)
  store i32 %85, ptr %14, align 4, !tbaa !8
  call void @llvm.lifetime.start.p0(i64 4, ptr %15) #7
  %86 = load i32, ptr %10, align 4, !tbaa !8
  %87 = load i32, ptr %11, align 4, !tbaa !8
  %88 = load i32, ptr %13, align 4, !tbaa !8
  %89 = call i32 @BranchCost(i32 noundef %86, i32 noundef %87, i32 noundef %88)
  %90 = load i32, ptr %12, align 4, !tbaa !8
  %91 = trunc i32 %90 to i8
  %92 = call i32 @VP8BitCost(i32 noundef 0, i8 noundef zeroext %91)
  %93 = add nsw i32 %89, %92
  store i32 %93, ptr %15, align 4, !tbaa !8
  call void @llvm.lifetime.start.p0(i64 4, ptr %16) #7
  %94 = load i32, ptr %10, align 4, !tbaa !8
  %95 = load i32, ptr %11, align 4, !tbaa !8
  %96 = load i32, ptr %14, align 4, !tbaa !8
  %97 = call i32 @BranchCost(i32 noundef %94, i32 noundef %95, i32 noundef %96)
  %98 = load i32, ptr %12, align 4, !tbaa !8
  %99 = trunc i32 %98 to i8
  %100 = call i32 @VP8BitCost(i32 noundef 1, i8 noundef zeroext %99)
  %101 = add nsw i32 %97, %100
  %102 = add nsw i32 %101, 2048
  store i32 %102, ptr %16, align 4, !tbaa !8
  call void @llvm.lifetime.start.p0(i64 4, ptr %17) #7
  %103 = load i32, ptr %15, align 4, !tbaa !8
  %104 = load i32, ptr %16, align 4, !tbaa !8
  %105 = icmp sgt i32 %103, %104
  %106 = zext i1 %105 to i32
  store i32 %106, ptr %17, align 4, !tbaa !8
  %107 = load i32, ptr %17, align 4, !tbaa !8
  %108 = load i32, ptr %12, align 4, !tbaa !8
  %109 = trunc i32 %108 to i8
  %110 = call i32 @VP8BitCost(i32 noundef %107, i8 noundef zeroext %109)
  %111 = load i32, ptr %4, align 4, !tbaa !8
  %112 = add nsw i32 %111, %110
  store i32 %112, ptr %4, align 4, !tbaa !8
  %113 = load i32, ptr %17, align 4, !tbaa !8
  %114 = icmp ne i32 %113, 0
  br i1 %114, label %115, label %140

115:                                              ; preds = %33
  %116 = load i32, ptr %14, align 4, !tbaa !8
  %117 = trunc i32 %116 to i8
  %118 = load ptr, ptr %2, align 8, !tbaa !56
  %119 = getelementptr inbounds nuw %struct.VP8EncProba, ptr %118, i32 0, i32 2
  %120 = load i32, ptr %5, align 4, !tbaa !8
  %121 = sext i32 %120 to i64
  %122 = getelementptr inbounds [4 x [8 x [3 x [11 x i8]]]], ptr %119, i64 0, i64 %121
  %123 = load i32, ptr %6, align 4, !tbaa !8
  %124 = sext i32 %123 to i64
  %125 = getelementptr inbounds [8 x [3 x [11 x i8]]], ptr %122, i64 0, i64 %124
  %126 = load i32, ptr %7, align 4, !tbaa !8
  %127 = sext i32 %126 to i64
  %128 = getelementptr inbounds [3 x [11 x i8]], ptr %125, i64 0, i64 %127
  %129 = load i32, ptr %8, align 4, !tbaa !8
  %130 = sext i32 %129 to i64
  %131 = getelementptr inbounds [11 x i8], ptr %128, i64 0, i64 %130
  store i8 %117, ptr %131, align 1, !tbaa !35
  %132 = load i32, ptr %14, align 4, !tbaa !8
  %133 = load i32, ptr %13, align 4, !tbaa !8
  %134 = icmp ne i32 %132, %133
  %135 = zext i1 %134 to i32
  %136 = load i32, ptr %3, align 4, !tbaa !8
  %137 = or i32 %136, %135
  store i32 %137, ptr %3, align 4, !tbaa !8
  %138 = load i32, ptr %4, align 4, !tbaa !8
  %139 = add nsw i32 %138, 2048
  store i32 %139, ptr %4, align 4, !tbaa !8
  br label %157

140:                                              ; preds = %33
  %141 = load i32, ptr %13, align 4, !tbaa !8
  %142 = trunc i32 %141 to i8
  %143 = load ptr, ptr %2, align 8, !tbaa !56
  %144 = getelementptr inbounds nuw %struct.VP8EncProba, ptr %143, i32 0, i32 2
  %145 = load i32, ptr %5, align 4, !tbaa !8
  %146 = sext i32 %145 to i64
  %147 = getelementptr inbounds [4 x [8 x [3 x [11 x i8]]]], ptr %144, i64 0, i64 %146
  %148 = load i32, ptr %6, align 4, !tbaa !8
  %149 = sext i32 %148 to i64
  %150 = getelementptr inbounds [8 x [3 x [11 x i8]]], ptr %147, i64 0, i64 %149
  %151 = load i32, ptr %7, align 4, !tbaa !8
  %152 = sext i32 %151 to i64
  %153 = getelementptr inbounds [3 x [11 x i8]], ptr %150, i64 0, i64 %152
  %154 = load i32, ptr %8, align 4, !tbaa !8
  %155 = sext i32 %154 to i64
  %156 = getelementptr inbounds [11 x i8], ptr %153, i64 0, i64 %155
  store i8 %142, ptr %156, align 1, !tbaa !35
  br label %157

157:                                              ; preds = %140, %115
  call void @llvm.lifetime.end.p0(i64 4, ptr %17) #7
  call void @llvm.lifetime.end.p0(i64 4, ptr %16) #7
  call void @llvm.lifetime.end.p0(i64 4, ptr %15) #7
  call void @llvm.lifetime.end.p0(i64 4, ptr %14) #7
  call void @llvm.lifetime.end.p0(i64 4, ptr %13) #7
  call void @llvm.lifetime.end.p0(i64 4, ptr %12) #7
  call void @llvm.lifetime.end.p0(i64 4, ptr %11) #7
  call void @llvm.lifetime.end.p0(i64 4, ptr %10) #7
  call void @llvm.lifetime.end.p0(i64 4, ptr %9) #7
  br label %158

158:                                              ; preds = %157
  %159 = load i32, ptr %8, align 4, !tbaa !8
  %160 = add nsw i32 %159, 1
  store i32 %160, ptr %8, align 4, !tbaa !8
  br label %30, !llvm.loop !105

161:                                              ; preds = %30
  br label %162

162:                                              ; preds = %161
  %163 = load i32, ptr %7, align 4, !tbaa !8
  %164 = add nsw i32 %163, 1
  store i32 %164, ptr %7, align 4, !tbaa !8
  br label %26, !llvm.loop !106

165:                                              ; preds = %26
  br label %166

166:                                              ; preds = %165
  %167 = load i32, ptr %6, align 4, !tbaa !8
  %168 = add nsw i32 %167, 1
  store i32 %168, ptr %6, align 4, !tbaa !8
  br label %22, !llvm.loop !107

169:                                              ; preds = %22
  br label %170

170:                                              ; preds = %169
  %171 = load i32, ptr %5, align 4, !tbaa !8
  %172 = add nsw i32 %171, 1
  store i32 %172, ptr %5, align 4, !tbaa !8
  br label %18, !llvm.loop !108

173:                                              ; preds = %18
  %174 = load i32, ptr %3, align 4, !tbaa !8
  %175 = load ptr, ptr %2, align 8, !tbaa !56
  %176 = getelementptr inbounds nuw %struct.VP8EncProba, ptr %175, i32 0, i32 6
  store i32 %174, ptr %176, align 8, !tbaa !109
  %177 = load i32, ptr %4, align 4, !tbaa !8
  call void @llvm.lifetime.end.p0(i64 4, ptr %8) #7
  call void @llvm.lifetime.end.p0(i64 4, ptr %7) #7
  call void @llvm.lifetime.end.p0(i64 4, ptr %6) #7
  call void @llvm.lifetime.end.p0(i64 4, ptr %5) #7
  call void @llvm.lifetime.end.p0(i64 4, ptr %4) #7
  call void @llvm.lifetime.end.p0(i64 4, ptr %3) #7
  ret i32 %177
}