; Function Attrs: nofree norecurse nosync nounwind memory(argmem: readwrite) uwtable
define internal fastcc i32 @FinalizeTokenProbas(ptr noundef captures(none) %0) unnamed_addr #3 {
  %2 = getelementptr inbounds nuw i8, ptr %0, i64 1060
  %3 = getelementptr inbounds nuw i8, ptr %0, i64 4
  br label %.preheader80

.preheader80:                                     ; preds = %1, %53
  %indvars.iv102 = phi i64 [ 0, %1 ], [ %indvars.iv.next103, %53 ]
  %.092 = phi i32 [ 0, %1 ], [ %.4, %53 ]
  %.05791 = phi i32 [ 0, %1 ], [ %.461, %53 ]
  br label %.preheader79

.preheader79:                                     ; preds = %.preheader80, %52
  %indvars.iv98 = phi i64 [ 0, %.preheader80 ], [ %indvars.iv.next99, %52 ]
  %.189 = phi i32 [ %.092, %.preheader80 ], [ %.4, %52 ]
  %.15888 = phi i32 [ %.05791, %.preheader80 ], [ %.461, %52 ]
  br label %.preheader

.preheader:                                       ; preds = %.preheader79, %51
  %indvars.iv94 = phi i64 [ 0, %.preheader79 ], [ %indvars.iv.next95, %51 ]
  %.286 = phi i32 [ %.189, %.preheader79 ], [ %.4, %51 ]
  %.25985 = phi i32 [ %.15888, %.preheader79 ], [ %.461, %51 ]
  br label %4

4:                                                ; preds = %.preheader, %50
  %indvars.iv = phi i64 [ 0, %.preheader ], [ %indvars.iv.next, %50 ]
  %.383 = phi i32 [ %.286, %.preheader ], [ %.4, %50 ]
  %.36082 = phi i32 [ %.25985, %.preheader ], [ %.461, %50 ]
  %5 = getelementptr inbounds nuw [4 x [8 x [3 x [11 x i32]]]], ptr %2, i64 0, i64 %indvars.iv102, i64 %indvars.iv98, i64 %indvars.iv94, i64 %indvars.iv
  %6 = load i32, ptr %5, align 4, !tbaa !51
  %7 = and i32 %6, 65535
  %8 = lshr i32 %6, 16
  %9 = getelementptr inbounds nuw [4 x [8 x [3 x [11 x i8]]]], ptr @VP8CoeffsUpdateProba, i64 0, i64 %indvars.iv102, i64 %indvars.iv98, i64 %indvars.iv94, i64 %indvars.iv
  %10 = load i8, ptr %9, align 1, !tbaa !24
  %11 = getelementptr inbounds nuw [4 x [8 x [3 x [11 x i8]]]], ptr @VP8CoeffsProba0, i64 0, i64 %indvars.iv102, i64 %indvars.iv98, i64 %indvars.iv94, i64 %indvars.iv
  %12 = load i8, ptr %11, align 1, !tbaa !24
  %13 = zext i8 %12 to i32
  %.not.i = icmp eq i32 %7, 0
  br i1 %.not.i, label %CalcTokenProba.exit, label %14

14:                                               ; preds = %4
  %15 = mul nuw nsw i32 %7, 255
  %16 = udiv i32 %15, %8
  %17 = sub nsw i32 255, %16
  br label %CalcTokenProba.exit

CalcTokenProba.exit:                              ; preds = %4, %14
  %18 = phi i32 [ %17, %14 ], [ 255, %4 ]
  %19 = xor i32 %13, 255
  %.pn.i.i = zext nneg i32 %19 to i64
  %.in.in.i.i = getelementptr inbounds nuw [256 x i16], ptr @VP8EntropyCost, i64 0, i64 %.pn.i.i
  %.in.i.i = load i16, ptr %.in.in.i.i, align 2, !tbaa !66
  %20 = zext i16 %.in.i.i to i32
  %21 = mul nuw nsw i32 %7, %20
  %22 = sub nsw i32 %8, %7
  %.pn.i6.i = zext i8 %12 to i64
  %.in.in.i7.i = getelementptr inbounds nuw [256 x i16], ptr @VP8EntropyCost, i64 0, i64 %.pn.i6.i
  %.in.i8.i = load i16, ptr %.in.in.i7.i, align 2, !tbaa !66
  %23 = zext i16 %.in.i8.i to i32
  %24 = mul nsw i32 %22, %23
  %25 = add nsw i32 %24, %21
  %.pn.i = zext i8 %10 to i64
  %.in.in.i = getelementptr inbounds nuw [256 x i16], ptr @VP8EntropyCost, i64 0, i64 %.pn.i
  %.in.i = load i16, ptr %.in.in.i, align 2, !tbaa !66
  %26 = zext i16 %.in.i to i32
  %27 = add nsw i32 %25, %26
  %28 = and i32 %18, 255
  %29 = xor i32 %28, 255
  %.pn.i.i66 = zext nneg i32 %29 to i64
  %.in.in.i.i67 = getelementptr inbounds nuw [256 x i16], ptr @VP8EntropyCost, i64 0, i64 %.pn.i.i66
  %.in.i.i68 = load i16, ptr %.in.in.i.i67, align 2, !tbaa !66
  %30 = zext i16 %.in.i.i68 to i32
  %31 = mul nuw nsw i32 %7, %30
  %.pn.i6.i69 = zext nneg i32 %28 to i64
  %.in.in.i7.i70 = getelementptr inbounds nuw [256 x i16], ptr @VP8EntropyCost, i64 0, i64 %.pn.i6.i69
  %.in.i8.i71 = load i16, ptr %.in.in.i7.i70, align 2, !tbaa !66
  %32 = zext i16 %.in.i8.i71 to i32
  %33 = mul nsw i32 %22, %32
  %.pn.in.i = xor i8 %10, -1
  %.pn.i72 = zext i8 %.pn.in.i to i64
  %.in.in.i73 = getelementptr inbounds nuw [256 x i16], ptr @VP8EntropyCost, i64 0, i64 %.pn.i72
  %.in.i74 = load i16, ptr %.in.in.i73, align 2, !tbaa !66
  %34 = zext i16 %.in.i74 to i32
  %35 = add nuw i32 %31, 2048
  %36 = add i32 %35, %33
  %37 = add i32 %36, %34
  %38 = icmp sgt i32 %27, %37
  %.neg = sext i1 %38 to i8
  %.pn.in.i75 = xor i8 %10, %.neg
  %.pn.i76 = zext i8 %.pn.in.i75 to i64
  %.in.in.i77 = getelementptr inbounds nuw [256 x i16], ptr @VP8EntropyCost, i64 0, i64 %.pn.i76
  %.in.i78 = load i16, ptr %.in.in.i77, align 2, !tbaa !66
  %39 = zext i16 %.in.i78 to i32
  %40 = add nsw i32 %.36082, %39
  br i1 %38, label %41, label %48

41:                                               ; preds = %CalcTokenProba.exit
  %42 = trunc i32 %18 to i8
  %43 = getelementptr inbounds nuw [4 x [8 x [3 x [11 x i8]]]], ptr %3, i64 0, i64 %indvars.iv102, i64 %indvars.iv98, i64 %indvars.iv94, i64 %indvars.iv
  store i8 %42, ptr %43, align 1, !tbaa !24
  %44 = icmp ne i32 %18, %13
  %45 = zext i1 %44 to i32
  %46 = or i32 %.383, %45
  %47 = add nsw i32 %40, 2048
  br label %50

48:                                               ; preds = %CalcTokenProba.exit
  %49 = getelementptr inbounds nuw [4 x [8 x [3 x [11 x i8]]]], ptr %3, i64 0, i64 %indvars.iv102, i64 %indvars.iv98, i64 %indvars.iv94, i64 %indvars.iv
  store i8 %12, ptr %49, align 1, !tbaa !24
  br label %50

50:                                               ; preds = %48, %41
  %.461 = phi i32 [ %47, %41 ], [ %40, %48 ]
  %.4 = phi i32 [ %46, %41 ], [ %.383, %48 ]
  %indvars.iv.next = add nuw nsw i64 %indvars.iv, 1
  %exitcond.not = icmp eq i64 %indvars.iv.next, 11
  br i1 %exitcond.not, label %51, label %4, !llvm.loop !118

51:                                               ; preds = %50
  %indvars.iv.next95 = add nuw nsw i64 %indvars.iv94, 1
  %exitcond97.not = icmp eq i64 %indvars.iv.next95, 3
  br i1 %exitcond97.not, label %52, label %.preheader, !llvm.loop !119

52:                                               ; preds = %51
  %indvars.iv.next99 = add nuw nsw i64 %indvars.iv98, 1
  %exitcond101.not = icmp eq i64 %indvars.iv.next99, 8
  br i1 %exitcond101.not, label %53, label %.preheader79, !llvm.loop !120

53:                                               ; preds = %52
  %indvars.iv.next103 = add nuw nsw i64 %indvars.iv102, 1
  %exitcond105.not = icmp eq i64 %indvars.iv.next103, 4
  br i1 %exitcond105.not, label %54, label %.preheader80, !llvm.loop !121

54:                                               ; preds = %53
  %55 = getelementptr inbounds nuw i8, ptr %0, i64 19880
  store i32 %.4, ptr %55, align 8, !tbaa !122
  ret i32 %.461
}